target datalayout = "e-m:e-p270:32:32-p271:32:32-p272:64:64-i64:64-i128:128-f80:128-n8:16:32:64-S128"
target triple = "x86_64-pc-linux-gnu"

%struct.elist = type { ptr, i64 }
%struct.Agobj_s = type { %struct.Agtag_s, ptr }
%struct.Agtag_s = type { i32, i64 }
%struct.Agrec_s = type { ptr, ptr }
%struct.boxf = type { %struct.pointf_s, %struct.pointf_s }
%struct.pointf_s = type { double, double }
%struct.Agnodeinfo_t = type { %struct.Agrec_s, ptr, ptr, %struct.pointf_s, double, double, %struct.boxf, double, double, double, double, double, ptr, ptr, ptr, i8, i8, i8, i8, i32, i32, i32, ptr, double, i8, i8, ptr, ptr, i8, i64, i8, i8, i8, ptr, ptr, %struct.elist, %struct.elist, %struct.elist, %struct.elist, %struct.elist, ptr, i32, ptr, i32, i32, double, %struct.elist, %struct.elist, %struct.elist, %struct.elist, ptr, i32, i32, i32, [1 x double] }
%struct.Agedgeinfo_t = type { %struct.Agrec_s, ptr, %struct.port, %struct.port, ptr, ptr, ptr, ptr, i8, i8, i8, i8, i8, ptr, ptr, double, double, %struct.Ppoly_t, i8, i8, i16, i32, i32, i32, i16, i32, ptr }
%struct.port = type { %struct.pointf_s, double, ptr, i8, i8, i8, i8, i8, i8, ptr }
%struct.Ppoly_t = type { ptr, i64 }
%struct.Agedge_s = type { %struct.Agobj_s, %struct.dtlink_s_, %struct.dtlink_s_, ptr }
%struct.dtlink_s_ = type { ptr, %union.anon }
%union.anon = type { ptr }

@Enter = internal global ptr null, align 8
@Slack = internal global i32 0, align 4
@Low = internal global i32 0, align 4
@Lim = internal global i32 0, align 4

; Function Attrs: nounwind uwtable
define internal void @dfs_enter_inedge(ptr noundef %0) #0 {
  %2 = alloca ptr, align 8
  %3 = alloca i32, align 4
  %4 = alloca i32, align 4
  %5 = alloca ptr, align 8
  store ptr %0, ptr %2, align 8, !tbaa !48
  call void @llvm.lifetime.start.p0(i64 4, ptr %3) #14
  call void @llvm.lifetime.start.p0(i64 4, ptr %4) #14
  call void @llvm.lifetime.start.p0(i64 8, ptr %5) #14
  store i32 0, ptr %3, align 4, !tbaa !8
  br label %6

6:                                                ; preds = %164, %1
  %7 = load ptr, ptr %2, align 8, !tbaa !48
  %8 = getelementptr inbounds nuw %struct.Agobj_s, ptr %7, i32 0, i32 1
  %9 = load ptr, ptr %8, align 8, !tbaa !27
  %10 = getelementptr inbounds nuw %struct.Agnodeinfo_t, ptr %9, i32 0, i32 35
  %11 = getelementptr inbounds nuw %struct.elist, ptr %10, i32 0, i32 0
  %12 = load ptr, ptr %11, align 8, !tbaa !64
  %13 = load i32, ptr %3, align 4, !tbaa !8
  %14 = sext i32 %13 to i64
  %15 = getelementptr inbounds ptr, ptr %12, i64 %14
  %16 = load ptr, ptr %15, align 8, !tbaa !19
  store ptr %16, ptr %5, align 8, !tbaa !19
  %17 = icmp ne ptr %16, null
  br i1 %17, label %18, label %167

18:                                               ; preds = %6
  %19 = load ptr, ptr %5, align 8, !tbaa !19
  %20 = getelementptr inbounds nuw %struct.Agobj_s, ptr %19, i32 0, i32 1
  %21 = load ptr, ptr %20, align 8, !tbaa !27
  %22 = getelementptr inbounds nuw %struct.Agedgeinfo_t, ptr %21, i32 0, i32 23
  %23 = load i32, ptr %22, align 4, !tbaa !71
  %24 = icmp sge i32 %23, 0
  br i1 %24, label %122, label %25

25:                                               ; preds = %18
  %26 = load i32, ptr @Low, align 4, !tbaa !8
  %27 = load ptr, ptr %5, align 8, !tbaa !19
  %28 = getelementptr inbounds nuw %struct.Agobj_s, ptr %27, i32 0, i32 0
  %29 = load i32, ptr %28, align 8
  %30 = and i32 %29, 3
  %31 = icmp eq i32 %30, 3
  br i1 %31, label %32, label %34

32:                                               ; preds = %25
  %33 = load ptr, ptr %5, align 8, !tbaa !19
  br label %37

34:                                               ; preds = %25
  %35 = load ptr, ptr %5, align 8, !tbaa !19
  %36 = getelementptr inbounds %struct.Agedge_s, ptr %35, i64 1
  br label %37

37:                                               ; preds = %34, %32
  %38 = phi ptr [ %33, %32 ], [ %36, %34 ]
  %39 = getelementptr inbounds nuw %struct.Agedge_s, ptr %38, i32 0, i32 3
  %40 = load ptr, ptr %39, align 8, !tbaa !72
  %41 = getelementptr inbounds nuw %struct.Agobj_s, ptr %40, i32 0, i32 1
  %42 = load ptr, ptr %41, align 8, !tbaa !27
  %43 = getelementptr inbounds nuw %struct.Agnodeinfo_t, ptr %42, i32 0, i32 52
  %44 = load i32, ptr %43, align 4, !tbaa !107
  %45 = icmp sle i32 %26, %44
  br i1 %45, label %46, label %67

46:                                               ; preds = %37
  %47 = load ptr, ptr %5, align 8, !tbaa !19
  %48 = getelementptr inbounds nuw %struct.Agobj_s, ptr %47, i32 0, i32 0
  %49 = load i32, ptr %48, align 8
  %50 = and i32 %49, 3
  %51 = icmp eq i32 %50, 3
  br i1 %51, label %52, label %54

52:                                               ; preds = %46
  %53 = load ptr, ptr %5, align 8, !tbaa !19
  br label %57

54:                                               ; preds = %46
  %55 = load ptr, ptr %5, align 8, !tbaa !19
  %56 = getelementptr inbounds %struct.Agedge_s, ptr %55, i64 1
  br label %57

57:                                               ; preds = %54, %52
  %58 = phi ptr [ %53, %52 ], [ %56, %54 ]
  %59 = getelementptr inbounds nuw %struct.Agedge_s, ptr %58, i32 0, i32 3
  %60 = load ptr, ptr %59, align 8, !tbaa !72
  %61 = getelementptr inbounds nuw %struct.Agobj_s, ptr %60, i32 0, i32 1
  %62 = load ptr, ptr %61, align 8, !tbaa !27
  %63 = getelementptr inbounds nuw %struct.Agnodeinfo_t, ptr %62, i32 0, i32 52
  %64 = load i32, ptr %63, align 4, !tbaa !107
  %65 = load i32, ptr @Lim, align 4, !tbaa !8
  %66 = icmp sle i32 %64, %65
  br i1 %66, label %121, label %67

67:                                               ; preds = %57, %37
  %68 = load ptr, ptr %5, align 8, !tbaa !19
  %69 = getelementptr inbounds nuw %struct.Agobj_s, ptr %68, i32 0, i32 0
  %70 = load i32, ptr %69, align 8
  %71 = and i32 %70, 3
  %72 = icmp eq i32 %71, 2
  br i1 %72, label %73, label %75

73:                                               ; preds = %67
  %74 = load ptr, ptr %5, align 8, !tbaa !19
  br label %78

75:                                               ; preds = %67
  %76 = load ptr, ptr %5, align 8, !tbaa !19
  %77 = getelementptr inbounds %struct.Agedge_s, ptr %76, i64 -1
  br label %78

78:                                               ; preds = %75, %73
  %79 = phi ptr [ %74, %73 ], [ %77, %75 ]
  %80 = getelementptr inbounds nuw %struct.Agedge_s, ptr %79, i32 0, i32 3
  %81 = load ptr, ptr %80, align 8, !tbaa !72
  %82 = getelementptr inbounds nuw %struct.Agobj_s, ptr %81, i32 0, i32 1
  %83 = load ptr, ptr %82, align 8, !tbaa !27
  %84 = getelementptr inbounds nuw %struct.Agnodeinfo_t, ptr %83, i32 0, i32 43
  %85 = load i32, ptr %84, align 8, !tbaa !76
  %86 = load ptr, ptr %5, align 8, !tbaa !19
  %87 = getelementptr inbounds nuw %struct.Agobj_s, ptr %86, i32 0, i32 0
  %88 = load i32, ptr %87, align 8
  %89 = and i32 %88, 3
  %90 = icmp eq i32 %89, 3
  br i1 %90, label %91, label %93

91:                                               ; preds = %78
  %92 = load ptr, ptr %5, align 8, !tbaa !19
  br label %96

93:                                               ; preds = %78
  %94 = load ptr, ptr %5, align 8, !tbaa !19
  %95 = getelementptr inbounds %struct.Agedge_s, ptr %94, i64 1
  br label %96

96:                                               ; preds = %93, %91
  %97 = phi ptr [ %92, %91 ], [ %95, %93 ]
  %98 = getelementptr inbounds nuw %struct.Agedge_s, ptr %97, i32 0, i32 3
  %99 = load ptr, ptr %98, align 8, !tbaa !72
  %100 = getelementptr inbounds nuw %struct.Agobj_s, ptr %99, i32 0, i32 1
  %101 = load ptr, ptr %100, align 8, !tbaa !27
  %102 = getelementptr inbounds nuw %struct.Agnodeinfo_t, ptr %101, i32 0, i32 43
  %103 = load i32, ptr %102, align 8, !tbaa !76
  %104 = sub nsw i32 %85, %103
  %105 = load ptr, ptr %5, align 8, !tbaa !19
  %106 = getelementptr inbounds nuw %struct.Agobj_s, ptr %105, i32 0, i32 1
  %107 = load ptr, ptr %106, align 8, !tbaa !27
  %108 = getelementptr inbounds nuw %struct.Agedgeinfo_t, ptr %107, i32 0, i32 25
  %109 = load i32, ptr %108, align 4, !tbaa !77
  %110 = sub nsw i32 %104, %109
  store i32 %110, ptr %4, align 4, !tbaa !8
  %111 = load i32, ptr %4, align 4, !tbaa !8
  %112 = load i32, ptr @Slack, align 4, !tbaa !8
  %113 = icmp slt i32 %111, %112
  br i1 %113, label %117, label %114

114:                                              ; preds = %96
  %115 = load ptr, ptr @Enter, align 8, !tbaa !19
  %116 = icmp eq ptr %115, null
  br i1 %116, label %117, label %120

117:                                              ; preds = %114, %96
  %118 = load ptr, ptr %5, align 8, !tbaa !19
  store ptr %118, ptr @Enter, align 8, !tbaa !19
  %119 = load i32, ptr %4, align 4, !tbaa !8
  store i32 %119, ptr @Slack, align 4, !tbaa !8
  br label %120

120:                                              ; preds = %117, %114
  br label %121

121:                                              ; preds = %120, %57
  br label %163

122:                                              ; preds = %18
  %123 = load ptr, ptr %5, align 8, !tbaa !19
  %124 = getelementptr inbounds nuw %struct.Agobj_s, ptr %123, i32 0, i32 0
  %125 = load i32, ptr %124, align 8
  %126 = and i32 %125, 3
  %127 = icmp eq i32 %126, 3
  br i1 %127, label %128, label %130

128:                                              ; preds = %122
  %129 = load ptr, ptr %5, align 8, !tbaa !19
  br label %133

130:                                              ; preds = %122
  %131 = load ptr, ptr %5, align 8, !tbaa !19
  %132 = getelementptr inbounds %struct.Agedge_s, ptr %131, i64 1
  br label %133

133:                                              ; preds = %130, %128
  %134 = phi ptr [ %129, %128 ], [ %132, %130 ]
  %135 = getelementptr inbounds nuw %struct.Agedge_s, ptr %134, i32 0, i32 3
  %136 = load ptr, ptr %135, align 8, !tbaa !72
  %137 = getelementptr inbounds nuw %struct.Agobj_s, ptr %136, i32 0, i32 1
  %138 = load ptr, ptr %137, align 8, !tbaa !27
  %139 = getelementptr inbounds nuw %struct.Agnodeinfo_t, ptr %138, i32 0, i32 52
  %140 = load i32, ptr %139, align 4, !tbaa !107
  %141 = load ptr, ptr %2, align 8, !tbaa !48
  %142 = getelementptr inbounds nuw %struct.Agobj_s, ptr %141, i32 0, i32 1
  %143 = load ptr, ptr %142, align 8, !tbaa !27
  %144 = getelementptr inbounds nuw %struct.Agnodeinfo_t, ptr %143, i32 0, i32 52
  %145 = load i32, ptr %144, align 4, !tbaa !107
  %146 = icmp slt i32 %140, %145
  br i1 %146, label %147, label %162

147:                                              ; preds = %133
  %148 = load ptr, ptr %5, align 8, !tbaa !19
  %149 = getelementptr inbounds nuw %struct.Agobj_s, ptr %148, i32 0, i32 0
  %150 = load i32, ptr %149, align 8
  %151 = and i32 %150, 3
  %152 = icmp eq i32 %151, 3
  br i1 %152, label %153, label %155

153:                                              ; preds = %147
  %154 = load ptr, ptr %5, align 8, !tbaa !19
  br label %158

155:                                              ; preds = %147
  %156 = load ptr, ptr %5, align 8, !tbaa !19
  %157 = getelementptr inbounds %struct.Agedge_s, ptr %156, i64 1
  br label %158

158:                                              ; preds = %155, %153
  %159 = phi ptr [ %154, %153 ], [ %157, %155 ]
  %160 = getelementptr inbounds nuw %struct.Agedge_s, ptr %159, i32 0, i32 3
  %161 = load ptr, ptr %160, align 8, !tbaa !72
  call void @dfs_enter_inedge(ptr noundef %161)
  br label %162

162:                                              ; preds = %158, %133
  br label %163

163:                                              ; preds = %162, %121
  br label %164

164:                                              ; preds = %163
  %165 = load i32, ptr %3, align 4, !tbaa !8
  %166 = add nsw i32 %165, 1
  store i32 %166, ptr %3, align 4, !tbaa !8
  br label %6, !llvm.loop !161

167:                                              ; preds = %6
  store i32 0, ptr %3, align 4, !tbaa !8
  br label %168

168:                                              ; preds = %226, %167
  %169 = load ptr, ptr %2, align 8, !tbaa !48
  %170 = getelementptr inbounds nuw %struct.Agobj_s, ptr %169, i32 0, i32 1
  %171 = load ptr, ptr %170, align 8, !tbaa !27
  %172 = getelementptr inbounds nuw %struct.Agnodeinfo_t, ptr %171, i32 0, i32 49
  %173 = getelementptr inbounds nuw %struct.elist, ptr %172, i32 0, i32 0
  %174 = load ptr, ptr %173, align 8, !tbaa !82
  %175 = load i32, ptr %3, align 4, !tbaa !8
  %176 = sext i32 %175 to i64
  %177 = getelementptr inbounds ptr, ptr %174, i64 %176
  %178 = load ptr, ptr %177, align 8, !tbaa !19
  store ptr %178, ptr %5, align 8, !tbaa !19
  %179 = icmp ne ptr %178, null
  br i1 %179, label %180, label %183

180:                                              ; preds = %168
  %181 = load i32, ptr @Slack, align 4, !tbaa !8
  %182 = icmp sgt i32 %181, 0
  br label %183

183:                                              ; preds = %180, %168
  %184 = phi i1 [ false, %168 ], [ %182, %180 ]
  br i1 %184, label %185, label %229

185:                                              ; preds = %183
  %186 = load ptr, ptr %5, align 8, !tbaa !19
  %187 = getelementptr inbounds nuw %struct.Agobj_s, ptr %186, i32 0, i32 0
  %188 = load i32, ptr %187, align 8
  %189 = and i32 %188, 3
  %190 = icmp eq i32 %189, 2
  br i1 %190, label %191, label %193

191:                                              ; preds = %185
  %192 = load ptr, ptr %5, align 8, !tbaa !19
  br label %196

193:                                              ; preds = %185
  %194 = load ptr, ptr %5, align 8, !tbaa !19
  %195 = getelementptr inbounds %struct.Agedge_s, ptr %194, i64 -1
  br label %196

196:                                              ; preds = %193, %191
  %197 = phi ptr [ %192, %191 ], [ %195, %193 ]
  %198 = getelementptr inbounds nuw %struct.Agedge_s, ptr %197, i32 0, i32 3
  %199 = load ptr, ptr %198, align 8, !tbaa !72
  %200 = getelementptr inbounds nuw %struct.Agobj_s, ptr %199, i32 0, i32 1
  %201 = load ptr, ptr %200, align 8, !tbaa !27
  %202 = getelementptr inbounds nuw %struct.Agnodeinfo_t, ptr %201, i32 0, i32 52
  %203 = load i32, ptr %202, align 4, !tbaa !107
  %204 = load ptr, ptr %2, align 8, !tbaa !48
  %205 = getelementptr inbounds nuw %struct.Agobj_s, ptr %204, i32 0, i32 1
  %206 = load ptr, ptr %205, align 8, !tbaa !27
  %207 = getelementptr inbounds nuw %struct.Agnodeinfo_t, ptr %206, i32 0, i32 52
  %208 = load i32, ptr %207, align 4, !tbaa !107
  %209 = icmp slt i32 %203, %208
  br i1 %209, label %210, label %225

210:                                              ; preds = %196
  %211 = load ptr, ptr %5, align 8, !tbaa !19
  %212 = getelementptr inbounds nuw %struct.Agobj_s, ptr %211, i32 0, i32 0
  %213 = load i32, ptr %212, align 8
  %214 = and i32 %213, 3
  %215 = icmp eq i32 %214, 2
  br i1 %215, label %216, label %218

216:                                              ; preds = %210
  %217 = load ptr, ptr %5, align 8, !tbaa !19
  br label %221

218:                                              ; preds = %210
  %219 = load ptr, ptr %5, align 8, !tbaa !19
  %220 = getelementptr inbounds %struct.Agedge_s, ptr %219, i64 -1
  br label %221

221:                                              ; preds = %218, %216
  %222 = phi ptr [ %217, %216 ], [ %220, %218 ]
  %223 = getelementptr inbounds nuw %struct.Agedge_s, ptr %222, i32 0, i32 3
  %224 = load ptr, ptr %223, align 8, !tbaa !72
  call void @dfs_enter_inedge(ptr noundef %224)
  br label %225

225:                                              ; preds = %221, %196
  br label %226

226:                                              ; preds = %225
  %227 = load i32, ptr %3, align 4, !tbaa !8
  %228 = add nsw i32 %227, 1
  store i32 %228, ptr %3, align 4, !tbaa !8
  br label %168, !llvm.loop !162

229:                                              ; preds = %183
  call void @llvm.lifetime.end.p0(i64 8, ptr %5) #14
  call void @llvm.lifetime.end.p0(i64 4, ptr %4) #14
  call void @llvm.lifetime.end.p0(i64 4, ptr %3) #14
  ret void
}