; Function Attrs: nofree nosync nounwind memory(readwrite, argmem: read, inaccessiblemem: none) uwtable
define internal fastcc void @dfs_enter_inedge(ptr noundef readonly captures(none) %0) unnamed_addr #13 {
  %2 = getelementptr inbounds nuw i8, ptr %0, i64 16
  %3 = load ptr, ptr %2, align 8, !tbaa !6
  %4 = getelementptr inbounds nuw i8, ptr %3, i64 256
  %5 = load ptr, ptr %4, align 8, !tbaa !47
  %6 = load ptr, ptr %5, align 8, !tbaa !30
  %.not48 = icmp eq ptr %6, null
  br i1 %.not48, label %.preheader, label %.lr.ph

.lr.ph:                                           ; preds = %1
  %7 = load i32, ptr @Low, align 4
  %8 = load i32, ptr @Lim, align 4
  br label %17

.preheader:                                       ; preds = %61, %1
  %9 = phi ptr [ %3, %1 ], [ %62, %61 ]
  %10 = getelementptr inbounds nuw i8, ptr %9, i64 424
  %11 = load ptr, ptr %10, align 8, !tbaa !66
  %12 = load ptr, ptr %11, align 8, !tbaa !30
  %13 = icmp ne ptr %12, null
  %14 = load i32, ptr @Slack, align 4
  %15 = icmp sgt i32 %14, 0
  %16 = select i1 %13, i1 %15, i1 false
  br i1 %16, label %.lr.ph51, label %._crit_edge

17:                                               ; preds = %.lr.ph, %61
  %18 = phi ptr [ %3, %.lr.ph ], [ %62, %61 ]
  %indvars.iv = phi i64 [ 0, %.lr.ph ], [ %indvars.iv.next, %61 ]
  %19 = phi ptr [ %6, %.lr.ph ], [ %66, %61 ]
  %20 = getelementptr inbounds nuw i8, ptr %19, i64 16
  %21 = load ptr, ptr %20, align 8, !tbaa !6
  %22 = getelementptr inbounds nuw i8, ptr %21, i64 220
  %23 = load i32, ptr %22, align 4, !tbaa !55
  %24 = icmp sgt i32 %23, -1
  %25 = load i32, ptr %19, align 8
  %26 = and i32 %25, 3
  %27 = icmp eq i32 %26, 3
  %.idx43 = select i1 %27, i64 0, i64 64
  %28 = getelementptr inbounds nuw i8, ptr %19, i64 %.idx43
  %29 = getelementptr inbounds nuw i8, ptr %28, i64 56
  %30 = load ptr, ptr %29, align 8, !tbaa !56
  %31 = getelementptr inbounds nuw i8, ptr %30, i64 16
  %32 = load ptr, ptr %31, align 8, !tbaa !6
  %33 = getelementptr inbounds nuw i8, ptr %32, i64 452
  %34 = load i32, ptr %33, align 4, !tbaa !110
  br i1 %24, label %56, label %35

35:                                               ; preds = %17
  %.not40 = icmp sgt i32 %7, %34
  %.not41 = icmp sgt i32 %34, %8
  %or.cond44 = select i1 %.not40, i1 true, i1 %.not41
  br i1 %or.cond44, label %36, label %61

36:                                               ; preds = %35
  %37 = icmp eq i32 %26, 2
  %.idx42 = select i1 %37, i64 0, i64 -64
  %38 = getelementptr inbounds i8, ptr %19, i64 %.idx42
  %39 = getelementptr inbounds nuw i8, ptr %38, i64 56
  %40 = load ptr, ptr %39, align 8, !tbaa !56
  %41 = getelementptr inbounds nuw i8, ptr %40, i64 16
  %42 = load ptr, ptr %41, align 8, !tbaa !6
  %43 = getelementptr inbounds nuw i8, ptr %42, i64 360
  %44 = load i32, ptr %43, align 8, !tbaa !60
  %45 = getelementptr inbounds nuw i8, ptr %32, i64 360
  %46 = load i32, ptr %45, align 8, !tbaa !60
  %47 = getelementptr inbounds nuw i8, ptr %21, i64 228
  %48 = load i32, ptr %47, align 4, !tbaa !61
  %49 = add i32 %46, %48
  %50 = sub i32 %44, %49
  %51 = load i32, ptr @Slack, align 4, !tbaa !45
  %52 = icmp slt i32 %50, %51
  %53 = load ptr, ptr @Enter, align 8
  %54 = icmp eq ptr %53, null
  %or.cond = select i1 %52, i1 true, i1 %54
  br i1 %or.cond, label %55, label %61

55:                                               ; preds = %36
  store ptr %19, ptr @Enter, align 8, !tbaa !30
  store i32 %50, ptr @Slack, align 4, !tbaa !45
  br label %61

56:                                               ; preds = %17
  %57 = getelementptr inbounds nuw i8, ptr %18, i64 452
  %58 = load i32, ptr %57, align 4, !tbaa !110
  %59 = icmp slt i32 %34, %58
  br i1 %59, label %60, label %61

60:                                               ; preds = %56
  tail call fastcc void @dfs_enter_inedge(ptr noundef nonnull %30)
  %.pre = load ptr, ptr %2, align 8, !tbaa !6
  br label %61

61:                                               ; preds = %35, %55, %36, %60, %56
  %62 = phi ptr [ %18, %35 ], [ %18, %55 ], [ %18, %36 ], [ %.pre, %60 ], [ %18, %56 ]
  %indvars.iv.next = add nuw nsw i64 %indvars.iv, 1
  %63 = getelementptr inbounds nuw i8, ptr %62, i64 256
  %64 = load ptr, ptr %63, align 8, !tbaa !47
  %65 = getelementptr inbounds nuw ptr, ptr %64, i64 %indvars.iv.next
  %66 = load ptr, ptr %65, align 8, !tbaa !30
  %.not = icmp eq ptr %66, null
  br i1 %.not, label %.preheader, label %17, !llvm.loop !144

.lr.ph51:                                         ; preds = %.preheader, %84
  %67 = phi i32 [ %85, %84 ], [ %14, %.preheader ]
  %68 = phi ptr [ %86, %84 ], [ %9, %.preheader ]
  %indvars.iv53 = phi i64 [ %indvars.iv.next54, %84 ], [ 0, %.preheader ]
  %69 = phi ptr [ %90, %84 ], [ %12, %.preheader ]
  %70 = load i32, ptr %69, align 8
  %71 = and i32 %70, 3
  %72 = icmp eq i32 %71, 2
  %.idx = select i1 %72, i64 0, i64 -64
  %73 = getelementptr inbounds i8, ptr %69, i64 %.idx
  %74 = getelementptr inbounds nuw i8, ptr %73, i64 56
  %75 = load ptr, ptr %74, align 8, !tbaa !56
  %76 = getelementptr inbounds nuw i8, ptr %75, i64 16
  %77 = load ptr, ptr %76, align 8, !tbaa !6
  %78 = getelementptr inbounds nuw i8, ptr %77, i64 452
  %79 = load i32, ptr %78, align 4, !tbaa !110
  %80 = getelementptr inbounds nuw i8, ptr %68, i64 452
  %81 = load i32, ptr %80, align 4, !tbaa !110
  %82 = icmp slt i32 %79, %81
  br i1 %82, label %83, label %84

83:                                               ; preds = %.lr.ph51
  tail call fastcc void @dfs_enter_inedge(ptr noundef nonnull %75)
  %.pre56 = load ptr, ptr %2, align 8, !tbaa !6
  %.pre57 = load i32, ptr @Slack, align 4
  br label %84

84:                                               ; preds = %.lr.ph51, %83
  %85 = phi i32 [ %67, %.lr.ph51 ], [ %.pre57, %83 ]
  %86 = phi ptr [ %68, %.lr.ph51 ], [ %.pre56, %83 ]
  %indvars.iv.next54 = add nuw nsw i64 %indvars.iv53, 1
  %87 = getelementptr inbounds nuw i8, ptr %86, i64 424
  %88 = load ptr, ptr %87, align 8, !tbaa !66
  %89 = getelementptr inbounds nuw ptr, ptr %88, i64 %indvars.iv.next54
  %90 = load ptr, ptr %89, align 8, !tbaa !30
  %91 = icmp ne ptr %90, null
  %92 = icmp sgt i32 %85, 0
  %93 = select i1 %91, i1 %92, i1 false
  br i1 %93, label %.lr.ph51, label %._crit_edge, !llvm.loop !145

._crit_edge:                                      ; preds = %84, %.preheader
  ret void
}